; ModuleID = '3/542.c'
source_filename = "3/542.c"
target datalayout = "e-m:e-p270:32:32-p271:32:32-p272:64:64-i64:64-f80:128-n8:16:32:64-S128"
target triple = "x86_64-pc-linux-gnu"

@.str = private unnamed_addr constant [5 x i8] c"%d%d\00", align 1
@.str.1 = private unnamed_addr constant [3 x i8] c"%d\00", align 1
@.str.2 = private unnamed_addr constant [5 x i8] c"yes\0A\00", align 1
@.str.3 = private unnamed_addr constant [3 x i8] c"no\00", align 1

; Function Attrs: noinline nounwind uwtable
define dso_local void @main() #0 {
  %1 = alloca i32, align 4
  %2 = alloca i32, align 4
  %3 = alloca [1001 x i32], align 16
  %4 = alloca i32, align 4
  %5 = alloca i32, align 4
  %6 = alloca i32, align 4
  store i32 0, i32* %6, align 4
  %7 = call i32 (i8*, ...) @__isoc99_scanf(i8* getelementptr inbounds ([5 x i8], [5 x i8]* @.str, i64 0, i64 0), i32* %1, i32* %2)
  store i32 0, i32* %4, align 4
  br label %8

8:                                                ; preds = %17, %0
  %9 = load i32, i32* %4, align 4
  %10 = load i32, i32* %1, align 4
  %11 = icmp slt i32 %9, %10
  br i1 %11, label %12, label %20

12:                                               ; preds = %8
  %13 = load i32, i32* %4, align 4
  %14 = sext i32 %13 to i64
  %15 = getelementptr inbounds [1001 x i32], [1001 x i32]* %3, i64 0, i64 %14
  %16 = call i32 (i8*, ...) @__isoc99_scanf(i8* getelementptr inbounds ([3 x i8], [3 x i8]* @.str.1, i64 0, i64 0), i32* %15)
  br label %17

17:                                               ; preds = %12
  %18 = load i32, i32* %4, align 4
  %19 = add nsw i32 %18, 1
  store i32 %19, i32* %4, align 4
  br label %8

20:                                               ; preds = %8
  store i32 0, i32* %4, align 4
  br label %21

21:                                               ; preds = %63, %20
  %22 = load i32, i32* %4, align 4
  %23 = load i32, i32* %1, align 4
  %24 = icmp slt i32 %22, %23
  br i1 %24, label %25, label %28

25:                                               ; preds = %21
  %26 = load i32, i32* %6, align 4
  %27 = icmp eq i32 %26, 0
  br label %28

28:                                               ; preds = %25, %21
  %29 = phi i1 [ false, %21 ], [ %27, %25 ]
  br i1 %29, label %30, label %66

30:                                               ; preds = %28
  store i32 0, i32* %5, align 4
  br label %31

31:                                               ; preds = %59, %30
  %32 = load i32, i32* %5, align 4
  %33 = load i32, i32* %1, align 4
  %34 = icmp slt i32 %32, %33
  br i1 %34, label %35, label %38

35:                                               ; preds = %31
  %36 = load i32, i32* %6, align 4
  %37 = icmp eq i32 %36, 0
  br label %38

38:                                               ; preds = %35, %31
  %39 = phi i1 [ false, %31 ], [ %37, %35 ]
  br i1 %39, label %40, label %62

40:                                               ; preds = %38
  %41 = load i32, i32* %5, align 4
  %42 = load i32, i32* %4, align 4
  %43 = icmp sgt i32 %41, %42
  br i1 %43, label %44, label %58

44:                                               ; preds = %40
  %45 = load i32, i32* %4, align 4
  %46 = sext i32 %45 to i64
  %47 = getelementptr inbounds [1001 x i32], [1001 x i32]* %3, i64 0, i64 %46
  %48 = load i32, i32* %47, align 4
  %49 = load i32, i32* %5, align 4
  %50 = sext i32 %49 to i64
  %51 = getelementptr inbounds [1001 x i32], [1001 x i32]* %3, i64 0, i64 %50
  %52 = load i32, i32* %51, align 4
  %53 = add nsw i32 %48, %52
  %54 = load i32, i32* %2, align 4
  %55 = icmp eq i32 %53, %54
  br i1 %55, label %56, label %58

56:                                               ; preds = %44
  %57 = call i32 (i8*, ...) @printf(i8* getelementptr inbounds ([5 x i8], [5 x i8]* @.str.2, i64 0, i64 0))
  store i32 1, i32* %6, align 4
  br label %58

58:                                               ; preds = %56, %44, %40
  br label %59

59:                                               ; preds = %58
  %60 = load i32, i32* %5, align 4
  %61 = add nsw i32 %60, 1
  store i32 %61, i32* %5, align 4
  br label %31

62:                                               ; preds = %38
  br label %63

63:                                               ; preds = %62
  %64 = load i32, i32* %4, align 4
  %65 = add nsw i32 %64, 1
  store i32 %65, i32* %4, align 4
  br label %21

66:                                               ; preds = %28
  %67 = load i32, i32* %6, align 4
  %68 = icmp eq i32 %67, 0
  br i1 %68, label %69, label %71

69:                                               ; preds = %66
  %70 = call i32 (i8*, ...) @printf(i8* getelementptr inbounds ([3 x i8], [3 x i8]* @.str.3, i64 0, i64 0))
  br label %71

71:                                               ; preds = %69, %66
  ret void
}

declare dso_local i32 @__isoc99_scanf(i8*, ...) #1

declare dso_local i32 @printf(i8*, ...) #1


!llvm.module.flags = !{!0}
!llvm.ident = !{!1}

!0 = !{i32 1, !"wchar_size", i32 4}
!1 = !{!"clang version 10.0.0-4ubuntu1 "}
